target datalayout = "e-m:e-p270:32:32-p271:32:32-p272:64:64-i64:64-i128:128-f80:128-n8:16:32:64-S128"
target triple = "x86_64-pc-linux-gnu"

%struct._packet_info = type { ptr, ptr, i32, i32, %struct.nstime_t, %struct.nstime_t, %struct.nstime_t, i8, ptr, ptr, ptr, ptr, %struct._address, %struct._address, %struct._address, %struct._address, %struct._address, %struct._address, i32, ptr, i8, [3 x i8], %struct.anon, i32, i32, i32, i32, ptr, i8, ptr, ptr, i16, i16, i32, i32, i16, i32, i32, ptr, ptr, ptr, i8, i8, i16, i16, i16, i32, i16, i16, ptr, ptr, ptr, ptr, ptr, i32, i32 }
%struct.nstime_t = type { i64, i32 }
%struct._address = type { i32, i32, ptr, ptr }
%struct.anon = type { i8, [3 x i8] }

@proto_btatt = internal global i32 0, align 4
@.str.3203 = private unnamed_addr constant [21 x i8] c"ATT Handle 0x%04x as\00", align 1
@.str.3204 = private unnamed_addr constant [19 x i8] c"Unknown ATT Handle\00", align 1

; Function Attrs: null_pointer_is_valid sspstrong uwtable
define internal void @btatt_handle_prompt(ptr noundef %0, ptr noundef %1) #0 {
  %3 = alloca ptr, align 8
  %4 = alloca ptr, align 8
  %5 = alloca ptr, align 8
  store ptr %0, ptr %3, align 8
  store ptr %1, ptr %4, align 8
  call void @llvm.lifetime.start.p0(i64 8, ptr %5) #12
  %6 = load ptr, ptr %3, align 8
  %7 = getelementptr inbounds nuw %struct._packet_info, ptr %6, i32 0, i32 51
  %8 = load ptr, ptr %7, align 8
  %9 = load ptr, ptr %3, align 8
  %10 = load i32, ptr @proto_btatt, align 4
  %11 = call ptr @p_get_proto_data(ptr noundef %8, ptr noundef %9, i32 noundef %10, i32 noundef 0)
  store ptr %11, ptr %5, align 8
  %12 = load ptr, ptr %5, align 8
  %13 = icmp ne ptr %12, null
  br i1 %13, label %14, label %22

14:                                               ; preds = %2
  %15 = load ptr, ptr %4, align 8
  %16 = load ptr, ptr %4, align 8
  %17 = call i64 @llvm.objectsize.i64.p0(ptr %16, i1 false, i1 true, i1 true)
  %18 = load ptr, ptr %5, align 8
  %19 = load i16, ptr %18, align 2
  %20 = zext i16 %19 to i32
  %21 = call i32 (ptr, i64, i32, i64, ptr, ...) @__snprintf_chk(ptr noundef %15, i64 noundef 200, i32 noundef 2, i64 noundef %17, ptr noundef @.str.3203, i32 noundef %20)
  br label %27

22:                                               ; preds = %2
  %23 = load ptr, ptr %4, align 8
  %24 = load ptr, ptr %4, align 8
  %25 = call i64 @llvm.objectsize.i64.p0(ptr %24, i1 false, i1 true, i1 true)
  %26 = call i32 (ptr, i64, i32, i64, ptr, ...) @__snprintf_chk(ptr noundef %23, i64 noundef 200, i32 noundef 2, i64 noundef %25, ptr noundef @.str.3204)
  br label %27

27:                                               ; preds = %22, %14
  call void @llvm.lifetime.end.p0(i64 8, ptr %5) #12
  ret void
}